target datalayout = "e-m:e-p270:32:32-p271:32:32-p272:64:64-i64:64-i128:128-f80:128-n8:16:32:64-S128"
target triple = "x86_64-pc-linux-gnu"

%struct.hostent_arg = type { i64, ptr, ptr }

; Function Attrs: nounwind sspstrong uwtable
define i64 @rsock_make_hostent(i64 noundef %0, ptr noundef %1, ptr noundef %2) #0 {
  %4 = alloca i64, align 8
  %5 = alloca ptr, align 8
  %6 = alloca ptr, align 8
  %7 = alloca %struct.hostent_arg, align 8
  store i64 %0, ptr %4, align 8, !tbaa !31
  store ptr %1, ptr %5, align 8, !tbaa !6
  store ptr %2, ptr %6, align 8, !tbaa !26
  call void @llvm.lifetime.start.p0(i64 24, ptr %7) #24
  %8 = load i64, ptr %4, align 8, !tbaa !31
  %9 = getelementptr inbounds nuw %struct.hostent_arg, ptr %7, i32 0, i32 0
  store i64 %8, ptr %9, align 8, !tbaa !107
  %10 = load ptr, ptr %5, align 8, !tbaa !6
  %11 = getelementptr inbounds nuw %struct.hostent_arg, ptr %7, i32 0, i32 1
  store ptr %10, ptr %11, align 8, !tbaa !109
  %12 = load ptr, ptr %6, align 8, !tbaa !26
  %13 = getelementptr inbounds nuw %struct.hostent_arg, ptr %7, i32 0, i32 2
  store ptr %12, ptr %13, align 8, !tbaa !110
  %14 = ptrtoint ptr %7 to i64
  %15 = load ptr, ptr %5, align 8, !tbaa !6
  %16 = ptrtoint ptr %15 to i64
  %17 = call i64 @rb_ensure(ptr noundef @make_hostent_internal, i64 noundef %14, ptr noundef @rsock_freeaddrinfo, i64 noundef %16)
  call void @llvm.lifetime.end.p0(i64 24, ptr %7) #24
  ret i64 %17
}