; Function Attrs: nounwind sspstrong uwtable
define i64 @rsock_make_hostent(i64 noundef %0, ptr noundef %1, ptr noundef %2) local_unnamed_addr #0 {
  %4 = alloca %struct.hostent_arg, align 8
  call void @llvm.lifetime.start.p0(i64 24, ptr nonnull %4) #21
  store i64 %0, ptr %4, align 8, !tbaa !99
  %5 = getelementptr inbounds nuw i8, ptr %4, i64 8
  store ptr %1, ptr %5, align 8, !tbaa !102
  %6 = getelementptr inbounds nuw i8, ptr %4, i64 16
  store ptr %2, ptr %6, align 8, !tbaa !103
  %7 = ptrtoint ptr %4 to i64
  %8 = ptrtoint ptr %1 to i64
  %9 = call i64 @rb_ensure(ptr noundef nonnull @make_hostent_internal, i64 noundef %7, ptr noundef nonnull @rsock_freeaddrinfo, i64 noundef %8) #21
  call void @llvm.lifetime.end.p0(i64 24, ptr nonnull %4) #21
  ret i64 %9
}